target datalayout = "e-m:e-p270:32:32-p271:32:32-p272:64:64-i64:64-i128:128-f80:128-n8:16:32:64-S128"
target triple = "x86_64-pc-linux-gnu"

; Function Attrs: nounwind uwtable
define dso_local ptr @get_argument(ptr noundef %0) #0 {
  %2 = alloca ptr, align 8
  %3 = alloca ptr, align 8
  %4 = alloca ptr, align 8
  %5 = alloca ptr, align 8
  %6 = alloca i32, align 4
  store ptr %0, ptr %3, align 8
  call void @llvm.lifetime.start.p0(i64 8, ptr %4) #6
  %7 = load ptr, ptr %3, align 8
  %8 = load ptr, ptr %7, align 8
  store ptr %8, ptr %4, align 8
  call void @llvm.lifetime.start.p0(i64 8, ptr %5) #6
  br label %9

9:                                                ; preds = %21, %1
  %10 = load ptr, ptr %4, align 8
  %11 = load i8, ptr %10, align 1
  %12 = sext i8 %11 to i32
  %13 = icmp eq i32 %12, 32
  br i1 %13, label %19, label %14

14:                                               ; preds = %9
  %15 = load ptr, ptr %4, align 8
  %16 = load i8, ptr %15, align 1
  %17 = sext i8 %16 to i32
  %18 = icmp eq i32 %17, 9
  br label %19

19:                                               ; preds = %14, %9
  %20 = phi i1 [ true, %9 ], [ %18, %14 ]
  br i1 %20, label %21, label %24

21:                                               ; preds = %19
  %22 = load ptr, ptr %4, align 8
  %23 = getelementptr inbounds nuw i8, ptr %22, i32 1
  store ptr %23, ptr %4, align 8
  br label %9, !llvm.loop !19

24:                                               ; preds = %19
  %25 = load ptr, ptr %4, align 8
  %26 = load i8, ptr %25, align 1
  %27 = sext i8 %26 to i32
  %28 = icmp eq i32 %27, 0
  br i1 %28, label %29, label %30

29:                                               ; preds = %24
  store ptr null, ptr %2, align 8
  store i32 1, ptr %6, align 4
  br label %72

30:                                               ; preds = %24
  %31 = load ptr, ptr %4, align 8
  store ptr %31, ptr %5, align 8
  br label %32

32:                                               ; preds = %49, %30
  %33 = load ptr, ptr %5, align 8
  %34 = load i8, ptr %33, align 1
  %35 = sext i8 %34 to i32
  %36 = icmp ne i32 %35, 0
  br i1 %36, label %37, label %47

37:                                               ; preds = %32
  %38 = load ptr, ptr %5, align 8
  %39 = load i8, ptr %38, align 1
  %40 = sext i8 %39 to i32
  %41 = icmp ne i32 %40, 32
  br i1 %41, label %42, label %47

42:                                               ; preds = %37
  %43 = load ptr, ptr %5, align 8
  %44 = load i8, ptr %43, align 1
  %45 = sext i8 %44 to i32
  %46 = icmp ne i32 %45, 9
  br label %47

47:                                               ; preds = %42, %37, %32
  %48 = phi i1 [ false, %37 ], [ false, %32 ], [ %46, %42 ]
  br i1 %48, label %49, label %52

49:                                               ; preds = %47
  %50 = load ptr, ptr %5, align 8
  %51 = getelementptr inbounds nuw i8, ptr %50, i32 1
  store ptr %51, ptr %5, align 8
  br label %32, !llvm.loop !20

52:                                               ; preds = %47
  %53 = load ptr, ptr %5, align 8
  %54 = load ptr, ptr %3, align 8
  store ptr %53, ptr %54, align 8
  %55 = load ptr, ptr %3, align 8
  %56 = load ptr, ptr %55, align 8
  %57 = load i8, ptr %56, align 1
  %58 = sext i8 %57 to i32
  %59 = icmp ne i32 %58, 0
  br i1 %59, label %60, label %64

60:                                               ; preds = %52
  %61 = load ptr, ptr %3, align 8
  %62 = load ptr, ptr %61, align 8
  %63 = getelementptr inbounds nuw i8, ptr %62, i32 1
  store ptr %63, ptr %61, align 8
  br label %64

64:                                               ; preds = %60, %52
  %65 = load ptr, ptr %4, align 8
  %66 = load ptr, ptr %5, align 8
  %67 = load ptr, ptr %4, align 8
  %68 = ptrtoint ptr %66 to i64
  %69 = ptrtoint ptr %67 to i64
  %70 = sub i64 %68, %69
  %71 = call ptr @xstrndup(ptr noundef %65, i64 noundef %70)
  store ptr %71, ptr %2, align 8
  store i32 1, ptr %6, align 4
  br label %72

72:                                               ; preds = %64, %29
  call void @llvm.lifetime.end.p0(i64 8, ptr %5) #6
  call void @llvm.lifetime.end.p0(i64 8, ptr %4) #6
  %73 = load ptr, ptr %2, align 8
  ret ptr %73
}