; Function Attrs: nounwind uwtable
define dso_local ptr @get_argument(ptr noundef captures(none) %0) local_unnamed_addr #0 {
  %2 = load ptr, ptr %0, align 8
  br label %3

3:                                                ; preds = %.critedge, %1
  %.020 = phi ptr [ %2, %1 ], [ %5, %.critedge ]
  %4 = load i8, ptr %.020, align 1
  switch i8 %4, label %.preheader [
    i8 32, label %.critedge
    i8 9, label %.critedge
    i8 0, label %.loopexit
  ]

.critedge:                                        ; preds = %3, %3
  %5 = getelementptr inbounds nuw i8, ptr %.020, i64 1
  br label %3, !llvm.loop !19

.preheader:                                       ; preds = %3, %7
  %6 = phi i8 [ %.pr, %7 ], [ %4, %3 ]
  %.0 = phi ptr [ %8, %7 ], [ %.020, %3 ]
  switch i8 %6, label %7 [
    i8 0, label %.critedge2
    i8 32, label %.critedge2
    i8 9, label %.critedge2
  ]

7:                                                ; preds = %.preheader
  %8 = getelementptr inbounds nuw i8, ptr %.0, i64 1
  %.pr = load i8, ptr %8, align 1
  br label %.preheader, !llvm.loop !20

.critedge2:                                       ; preds = %.preheader, %.preheader, %.preheader
  store ptr %.0, ptr %0, align 8
  %9 = load i8, ptr %.0, align 1
  %.not26 = icmp eq i8 %9, 0
  br i1 %.not26, label %12, label %10

10:                                               ; preds = %.critedge2
  %11 = getelementptr inbounds nuw i8, ptr %.0, i64 1
  store ptr %11, ptr %0, align 8
  br label %12

12:                                               ; preds = %10, %.critedge2
  %13 = ptrtoint ptr %.0 to i64
  %14 = ptrtoint ptr %.020 to i64
  %15 = sub i64 %13, %14
  %16 = tail call ptr @xstrndup(ptr noundef nonnull %.020, i64 noundef %15) #8
  br label %.loopexit

.loopexit:                                        ; preds = %3, %12
  %.021 = phi ptr [ %16, %12 ], [ null, %3 ]
  ret ptr %.021
}